target datalayout = "e-m:e-p270:32:32-p271:32:32-p272:64:64-i64:64-i128:128-f80:128-n8:16:32:64-S128"
target triple = "x86_64-pc-linux-gnu"

%struct.Amap_Lib_t_ = type { ptr, ptr, ptr, ptr, ptr, ptr, ptr, ptr, ptr, i32, i32, i32, ptr, i32, i32, ptr, ptr, ptr, ptr, ptr, ptr, i32 }
%struct.Vec_Ptr_t_ = type { i32, i32, ptr }

; Function Attrs: nounwind uwtable
define internal ptr @Vec_PtrAlloc(i32 noundef %0) #0 {
  %2 = alloca i32, align 4
  %3 = alloca ptr, align 8
  store i32 %0, ptr %2, align 4
  %4 = call noalias ptr @malloc(i64 noundef 16) #9
  store ptr %4, ptr %3, align 8
  %5 = load i32, ptr %2, align 4
  %6 = icmp sgt i32 %5, 0
  br i1 %6, label %7, label %11

7:                                                ; preds = %1
  %8 = load i32, ptr %2, align 4
  %9 = icmp slt i32 %8, 8
  br i1 %9, label %10, label %11

10:                                               ; preds = %7
  store i32 8, ptr %2, align 4
  br label %11

11:                                               ; preds = %10, %7, %1
  %12 = load ptr, ptr %3, align 8
  %13 = getelementptr inbounds %struct.Vec_Ptr_t_, ptr %12, i32 0, i32 1
  store i32 0, ptr %13, align 4
  %14 = load i32, ptr %2, align 4
  %15 = load ptr, ptr %3, align 8
  %16 = getelementptr inbounds %struct.Vec_Ptr_t_, ptr %15, i32 0, i32 0
  store i32 %14, ptr %16, align 8
  %17 = load ptr, ptr %3, align 8
  %18 = getelementptr inbounds %struct.Vec_Ptr_t_, ptr %17, i32 0, i32 0
  %19 = load i32, ptr %18, align 8
  %20 = icmp ne i32 %19, 0
  br i1 %20, label %21, label %28

21:                                               ; preds = %11
  %22 = load ptr, ptr %3, align 8
  %23 = getelementptr inbounds %struct.Vec_Ptr_t_, ptr %22, i32 0, i32 0
  %24 = load i32, ptr %23, align 8
  %25 = sext i32 %24 to i64
  %26 = mul i64 8, %25
  %27 = call noalias ptr @malloc(i64 noundef %26) #9
  br label %29

28:                                               ; preds = %11
  br label %29

29:                                               ; preds = %28, %21
  %30 = phi ptr [ %27, %21 ], [ null, %28 ]
  %31 = load ptr, ptr %3, align 8
  %32 = getelementptr inbounds %struct.Vec_Ptr_t_, ptr %31, i32 0, i32 2
  store ptr %30, ptr %32, align 8
  %33 = load ptr, ptr %3, align 8
  ret ptr %33
}

; Function Attrs: nounwind uwtable
define ptr @Amap_LibAlloc() #0 {
  %1 = alloca ptr, align 8
  %2 = call noalias ptr @malloc(i64 noundef 160) #9
  store ptr %2, ptr %1, align 8
  %3 = load ptr, ptr %1, align 8
  call void @llvm.memset.p0.i64(ptr align 8 %3, i8 0, i64 160, i1 false)
  %4 = call ptr @Vec_PtrAlloc(i32 noundef 100)
  %5 = load ptr, ptr %1, align 8
  %6 = getelementptr inbounds %struct.Amap_Lib_t_, ptr %5, i32 0, i32 1
  store ptr %4, ptr %6, align 8
  %7 = call ptr (...) @Aig_MmFlexStart()
  %8 = load ptr, ptr %1, align 8
  %9 = getelementptr inbounds %struct.Amap_Lib_t_, ptr %8, i32 0, i32 8
  store ptr %7, ptr %9, align 8
  %10 = call ptr (...) @Aig_MmFlexStart()
  %11 = load ptr, ptr %1, align 8
  %12 = getelementptr inbounds %struct.Amap_Lib_t_, ptr %11, i32 0, i32 20
  store ptr %10, ptr %12, align 8
  %13 = load ptr, ptr %1, align 8
  ret ptr %13
}