; Function Attrs: nounwind uwtable
define noalias noundef ptr @Amap_LibAlloc() local_unnamed_addr #0 {
  %calloc = tail call dereferenceable_or_null(160) ptr @calloc(i64 1, i64 160)
  %1 = tail call noalias dereferenceable_or_null(16) ptr @malloc(i64 noundef 16) #21
  %2 = getelementptr inbounds nuw i8, ptr %1, i64 4
  store i32 0, ptr %2, align 4
  store i32 100, ptr %1, align 8
  %3 = tail call noalias dereferenceable_or_null(800) ptr @malloc(i64 noundef 800) #21
  %4 = getelementptr inbounds nuw i8, ptr %1, i64 8
  store ptr %3, ptr %4, align 8
  %5 = getelementptr inbounds nuw i8, ptr %calloc, i64 8
  store ptr %1, ptr %5, align 8
  %6 = tail call ptr (...) @Aig_MmFlexStart() #22
  %7 = getelementptr inbounds nuw i8, ptr %calloc, i64 64
  store ptr %6, ptr %7, align 8
  %8 = tail call ptr (...) @Aig_MmFlexStart() #22
  %9 = getelementptr inbounds nuw i8, ptr %calloc, i64 144
  store ptr %8, ptr %9, align 8
  ret ptr %calloc
}